ccopy_reg
_reconstructor
p0
(cgoogle.oauth2.credentials
Credentials
p1
c__builtin__
object
p2
Ntp3
Rp4
(dp5
S'_quota_project_id'
p6
NsS'_token_uri'
p7
Vhttps://oauth2.googleapis.com/token
p8
sS'_client_secret'
p9
V2Miy6-SdsoYYQMYj-QZQ2cA1
p10
sS'_default_scopes'
p11
NsS'expiry'
p12
cdatetime
datetime
p13
(S'\x07\xe5\x05\x04\n\x15-\x04|\xd3'
p14
tp15
Rp16
sS'token'
p17
Vya29.a0AfH6SMCIuUL3QFLXa5ldlkBw2AVr9EqiJ3er2P8muA045ZJbNbDdfmmHVUuFQmoNRiS2JYFl8pCQ8TjEGtqZuG2FJU6RjbJiiRuQ2xgyFTh851l6ZnxX3k6_uwGbCNYC4VC8P1RvXJlbflLJm4B9Cw1H06ea
p18
sS'_refresh_token'
p19
V1//0ehGVRTuQ4dL1CgYIARAAGA4SNwF-L9IrVdTDWGCCPOXYgGWXXpC3VXPjt1aXB2F5_rhzZsVd-KZEB42i0yDMVH8rRjrzSmshG8E
p20
sS'_scopes'
p21
(lp22
S'https://www.googleapis.com/auth/drive'
p23
asS'_client_id'
p24
V788031957140-tpbganhne2ut82akh7vl7lgis0jhls8l.apps.googleusercontent.com
p25
sS'_id_token'
p26
NsS'_rapt_token'
p27
Nsb.